target datalayout = "e-m:e-p270:32:32-p271:32:32-p272:64:64-i64:64-i128:128-f80:128-n8:16:32:64-S128"
target triple = "x86_64-pc-linux-gnu"

@.str.2 = private unnamed_addr constant [12 x i8] c"CanApplyAPI\00", align 1

; Function Attrs: mustprogress uwtable
define noundef zeroext i1 @_ZNK32pxrInternal_v0_24__pxrReserved__7UsdPrim11CanApplyAPIERKNS_7TfTokenEPNSt7__cxx1112basic_stringIcSt11char_traitsIcESaIcEEE(ptr noundef nonnull align 8 dereferenceable(32) %0, ptr noundef nonnull align 8 dereferenceable(8) %1, ptr noundef %2) #0 align 2 {
  %4 = alloca i1, align 1
  %5 = alloca ptr, align 8
  %6 = alloca ptr, align 8
  %7 = alloca ptr, align 8
  %8 = alloca ptr, align 8
  store ptr %0, ptr %5, align 8
  store ptr %1, ptr %6, align 8
  store ptr %2, ptr %7, align 8
  %9 = load ptr, ptr %5, align 8
  %10 = load ptr, ptr %6, align 8
  %11 = call noundef ptr @_ZN32pxrInternal_v0_24__pxrReserved__17UsdSchemaRegistry14FindSchemaInfoERKNS_7TfTokenE(ptr noundef nonnull align 8 dereferenceable(8) %10)
  store ptr %11, ptr %8, align 8
  %12 = load ptr, ptr %8, align 8
  %13 = icmp ne ptr %12, null
  br i1 %13, label %14, label %18

14:                                               ; preds = %3
  %15 = load ptr, ptr %8, align 8
  %16 = load ptr, ptr %7, align 8
  %17 = call noundef zeroext i1 @_ZNK32pxrInternal_v0_24__pxrReserved__7UsdPrim23_CanApplySingleApplyAPIERKNS_17UsdSchemaRegistry10SchemaInfoEPNSt7__cxx1112basic_stringIcSt11char_traitsIcESaIcEEE(ptr noundef nonnull align 8 dereferenceable(32) %9, ptr noundef nonnull align 8 dereferenceable(32) %15, ptr noundef %16)
  store i1 %17, ptr %4, align 1
  br label %21

18:                                               ; preds = %3
  %19 = load ptr, ptr %6, align 8
  %20 = load ptr, ptr %7, align 8
  call void @_ZN32pxrInternal_v0_24__pxrReserved__L25_ReportInvalidSchemaErrorEPKcRKNS_7TfTokenEPNSt7__cxx1112basic_stringIcSt11char_traitsIcESaIcEEE(ptr noundef @.str.2, ptr noundef nonnull align 8 dereferenceable(8) %19, ptr noundef %20)
  store i1 false, ptr %4, align 1
  br label %21

21:                                               ; preds = %18, %14
  %22 = load i1, ptr %4, align 1
  ret i1 %22
}