; Function Attrs: mustprogress uwtable
define noundef zeroext i1 @_ZNK32pxrInternal_v0_24__pxrReserved__7UsdPrim11CanApplyAPIERKNS_7TfTokenEPNSt7__cxx1112basic_stringIcSt11char_traitsIcESaIcEEE(ptr noundef nonnull align 8 dereferenceable(32) %0, ptr noundef nonnull align 8 dereferenceable(8) %1, ptr noundef %2) local_unnamed_addr #0 align 2 {
  %4 = tail call noundef ptr @_ZN32pxrInternal_v0_24__pxrReserved__17UsdSchemaRegistry14FindSchemaInfoERKNS_7TfTokenE(ptr noundef nonnull align 8 dereferenceable(8) %1)
  %.not = icmp eq ptr %4, null
  br i1 %.not, label %7, label %5

5:                                                ; preds = %3
  %6 = tail call noundef zeroext i1 @_ZNK32pxrInternal_v0_24__pxrReserved__7UsdPrim23_CanApplySingleApplyAPIERKNS_17UsdSchemaRegistry10SchemaInfoEPNSt7__cxx1112basic_stringIcSt11char_traitsIcESaIcEEE(ptr noundef nonnull align 8 dereferenceable(32) %0, ptr noundef nonnull align 8 dereferenceable(32) %4, ptr noundef %2)
  br label %8

7:                                                ; preds = %3
  %.val = load ptr, ptr %1, align 8
  tail call fastcc void @_ZN32pxrInternal_v0_24__pxrReserved__L25_ReportInvalidSchemaErrorEPKcRKNS_7TfTokenEPNSt7__cxx1112basic_stringIcSt11char_traitsIcESaIcEEE(ptr noundef nonnull @.str.2, ptr %.val, ptr noundef %2)
  br label %8

8:                                                ; preds = %7, %5
  %.0 = phi i1 [ %6, %5 ], [ false, %7 ]
  ret i1 %.0
}